; Function Attrs: nounwind uwtable
define hidden void @X509_PURPOSE_cleanup() local_unnamed_addr #0 {
  %1 = load ptr, ptr @xptable, align 8, !tbaa !27
  tail call void @sk_pop_free(ptr noundef %1, ptr noundef nonnull @xptable_free) #10
  br label %2

2:                                                ; preds = %0, %xptable_free.exit
  %indvars.iv = phi i64 [ 0, %0 ], [ %indvars.iv.next, %xptable_free.exit ]
  %3 = getelementptr inbounds nuw %struct.x509_purpose_st, ptr @xstandard, i64 %indvars.iv
  %4 = getelementptr inbounds nuw i8, ptr %3, i64 8
  %5 = load i32, ptr %4, align 8, !tbaa !79
  %6 = and i32 %5, 1
  %.not6.i = icmp eq i32 %6, 0
  br i1 %.not6.i, label %xptable_free.exit, label %7

7:                                                ; preds = %2
  %8 = and i32 %5, 2
  %.not7.i = icmp eq i32 %8, 0
  br i1 %.not7.i, label %14, label %9

9:                                                ; preds = %7
  %10 = getelementptr inbounds nuw i8, ptr %3, i64 24
  %11 = load ptr, ptr %10, align 8, !tbaa !80
  tail call void @free(ptr noundef %11) #10
  %12 = getelementptr inbounds nuw i8, ptr %3, i64 32
  %13 = load ptr, ptr %12, align 16, !tbaa !77
  tail call void @free(ptr noundef %13) #10
  br label %14

14:                                               ; preds = %9, %7
  tail call void @free(ptr noundef nonnull %3) #10
  br label %xptable_free.exit

xptable_free.exit:                                ; preds = %2, %14
  %indvars.iv.next = add nuw nsw i64 %indvars.iv, 1
  %exitcond.not = icmp eq i64 %indvars.iv.next, 9
  br i1 %exitcond.not, label %15, label %2, !llvm.loop !85

15:                                               ; preds = %xptable_free.exit
  store ptr null, ptr @xptable, align 8, !tbaa !27
  ret void
}